; Function Attrs: mustprogress uwtable
define hidden noundef zeroext i1 @_ZN4cvc58internal6theory11quantifiers16InstStrategyEnum10needsCheckENS1_6Theory6EffortE(ptr noundef nonnull align 8 dereferenceable(60) %0, i32 noundef %1) unnamed_addr #3 align 2 {
  %3 = getelementptr inbounds nuw i8, ptr %0, i64 56
  %4 = load i32, ptr %3, align 8, !tbaa !19
  %5 = icmp eq i32 %4, 0
  br i1 %5, label %25, label %6

6:                                                ; preds = %2
  %7 = tail call noundef nonnull align 8 dereferenceable(408) ptr @_ZNK4cvc58internal6EnvObj7optionsEv(ptr noundef nonnull align 8 dereferenceable(16) %0)
  %8 = getelementptr inbounds nuw i8, ptr %7, i64 344
  %9 = load ptr, ptr %8, align 8, !tbaa !20
  %10 = getelementptr inbounds nuw i8, ptr %9, i64 133
  %11 = load i8, ptr %10, align 1, !tbaa !245, !range !246, !noundef !247
  %12 = trunc nuw i8 %11 to i1
  br i1 %12, label %13, label %17

13:                                               ; preds = %6
  %14 = getelementptr inbounds nuw i8, ptr %0, i64 16
  %15 = load ptr, ptr %14, align 8, !tbaa !248
  %16 = tail call noundef zeroext i1 @_ZNK4cvc58internal6theory11quantifiers16QuantifiersState21getInstWhenNeedsCheckENS1_6Theory6EffortE(ptr noundef nonnull align 8 dereferenceable(376) %15, i32 noundef %1)
  br i1 %16, label %25, label %17

17:                                               ; preds = %13, %6
  %18 = tail call noundef nonnull align 8 dereferenceable(408) ptr @_ZNK4cvc58internal6EnvObj7optionsEv(ptr noundef nonnull align 8 dereferenceable(16) %0)
  %19 = getelementptr inbounds nuw i8, ptr %18, i64 344
  %20 = load ptr, ptr %19, align 8, !tbaa !20
  %21 = getelementptr inbounds nuw i8, ptr %20, i64 131
  %22 = load i8, ptr %21, align 1, !tbaa !249, !range !246, !noundef !247
  %23 = trunc nuw i8 %22 to i1
  %24 = icmp sgt i32 %1, 199
  %or.cond = and i1 %24, %23
  br label %25

25:                                               ; preds = %17, %13, %2
  %.0 = phi i1 [ false, %2 ], [ true, %13 ], [ %or.cond, %17 ]
  ret i1 %.0
}